target datalayout = "e-m:e-p270:32:32-p271:32:32-p272:64:64-i64:64-i128:128-f80:128-n8:16:32:64-S128"
target triple = "x86_64-pc-linux-gnu"

%struct.AVCodecContext = type { ptr, i32, i32, ptr, i32, i32, ptr, ptr, ptr, i64, i32, i32, ptr, i32, %struct.AVRational, %struct.AVRational, %struct.AVRational, i32, i32, i32, i32, i32, %struct.AVRational, i32, i32, i32, i32, i32, i32, i32, i32, i32, i32, i32, ptr, ptr, i32, float, float, float, float, float, float, float, float, float, i32, i32, i32, i32, i32, i32, i32, i32, i32, i32, i32, i32, ptr, ptr, ptr, i32, i32, i32, i32, i32, i32, i32, i32, i32, i32, %struct.AVChannelLayout, i32, i32, i32, i32, i32, i32, i32, i32, ptr, i32, i32, i32, float, float, i32, i32, i32, i32, i32, ptr, i64, i64, float, float, i32, i32, ptr, ptr, i32, i32, i32, i32, i32, ptr, ptr, ptr, ptr, i32, i32, [8 x i64], i32, i32, i32, i32, i32, i32, i32, ptr, ptr, i32, i32, i32, i32, i32, i32, i32, i32, i32, i32, ptr, ptr, i32, i32, ptr, ptr, ptr, ptr, i32, i32, i64, i32, i32, i64, ptr, i64, ptr, i32, ptr, i32 }
%struct.AVRational = type { i32, i32 }
%struct.AVChannelLayout = type { i32, i32, %union.anon, ptr }
%union.anon = type { i64 }
%struct.FFV1Context = type { ptr, ptr, [256 x [2 x i64]], [8 x ptr], i32, i32, i32, i32, i32, i32, i32, i32, i32, i32, i64, i32, %struct.ProgressFrame, %struct.ProgressFrame, ptr, ptr, i32, i32, i32, ptr, i32, i32, [8 x [5 x [256 x i16]]], [8 x i32], [256 x i8], [8 x ptr], i32, i32, i32, i32, i32, i32, i32, i32, i32, i32, i32, i32, i32, i32, i32, i32, i32, i32, i32, ptr, ptr, i8 }
%struct.ProgressFrame = type { ptr, ptr }

; Function Attrs: nounwind uwtable
define i64 @ff_ffv1_encode_buffer_size(ptr noundef %0) #6 {
  %2 = alloca ptr, align 8
  %3 = alloca ptr, align 8
  %4 = alloca i64, align 8
  store ptr %0, ptr %2, align 8, !tbaa !4
  call void @llvm.lifetime.start.p0(i64 8, ptr %3) #16
  %5 = load ptr, ptr %2, align 8, !tbaa !4
  %6 = getelementptr inbounds nuw %struct.AVCodecContext, ptr %5, i32 0, i32 6
  %7 = load ptr, ptr %6, align 8, !tbaa !9
  store ptr %7, ptr %3, align 8, !tbaa !29
  call void @llvm.lifetime.start.p0(i64 8, ptr %4) #16
  %8 = load ptr, ptr %2, align 8, !tbaa !4
  %9 = getelementptr inbounds nuw %struct.AVCodecContext, ptr %8, i32 0, i32 18
  %10 = load i32, ptr %9, align 8, !tbaa !73
  %11 = load ptr, ptr %2, align 8, !tbaa !4
  %12 = getelementptr inbounds nuw %struct.AVCodecContext, ptr %11, i32 0, i32 19
  %13 = load i32, ptr %12, align 4, !tbaa !74
  %14 = mul nsw i32 %10, %13
  %15 = load ptr, ptr %3, align 8, !tbaa !29
  %16 = getelementptr inbounds nuw %struct.FFV1Context, ptr %15, i32 0, i32 12
  %17 = load i32, ptr %16, align 8, !tbaa !51
  %18 = add nsw i32 1, %17
  %19 = mul nsw i32 %14, %18
  %20 = sext i32 %19 to i64
  store i64 %20, ptr %4, align 8, !tbaa !93
  %21 = load ptr, ptr %3, align 8, !tbaa !29
  %22 = getelementptr inbounds nuw %struct.FFV1Context, ptr %21, i32 0, i32 9
  %23 = load i32, ptr %22, align 4, !tbaa !48
  %24 = icmp ne i32 %23, 0
  br i1 %24, label %25, label %91

25:                                               ; preds = %1
  %26 = load ptr, ptr %3, align 8, !tbaa !29
  %27 = getelementptr inbounds nuw %struct.FFV1Context, ptr %26, i32 0, i32 10
  %28 = load i32, ptr %27, align 8, !tbaa !49
  %29 = call i1 @llvm.is.constant.i32(i32 %28)
  br i1 %29, label %40, label %30

30:                                               ; preds = %25
  %31 = load ptr, ptr %2, align 8, !tbaa !4
  %32 = getelementptr inbounds nuw %struct.AVCodecContext, ptr %31, i32 0, i32 18
  %33 = load i32, ptr %32, align 8, !tbaa !73
  %34 = sub nsw i32 0, %33
  %35 = load ptr, ptr %3, align 8, !tbaa !29
  %36 = getelementptr inbounds nuw %struct.FFV1Context, ptr %35, i32 0, i32 10
  %37 = load i32, ptr %36, align 8, !tbaa !49
  %38 = ashr i32 %34, %37
  %39 = sub nsw i32 0, %38
  br label %54

40:                                               ; preds = %25
  %41 = load ptr, ptr %2, align 8, !tbaa !4
  %42 = getelementptr inbounds nuw %struct.AVCodecContext, ptr %41, i32 0, i32 18
  %43 = load i32, ptr %42, align 8, !tbaa !73
  %44 = load ptr, ptr %3, align 8, !tbaa !29
  %45 = getelementptr inbounds nuw %struct.FFV1Context, ptr %44, i32 0, i32 10
  %46 = load i32, ptr %45, align 8, !tbaa !49
  %47 = shl i32 1, %46
  %48 = add nsw i32 %43, %47
  %49 = sub nsw i32 %48, 1
  %50 = load ptr, ptr %3, align 8, !tbaa !29
  %51 = getelementptr inbounds nuw %struct.FFV1Context, ptr %50, i32 0, i32 10
  %52 = load i32, ptr %51, align 8, !tbaa !49
  %53 = ashr i32 %49, %52
  br label %54

54:                                               ; preds = %40, %30
  %55 = phi i32 [ %39, %30 ], [ %53, %40 ]
  %56 = load ptr, ptr %3, align 8, !tbaa !29
  %57 = getelementptr inbounds nuw %struct.FFV1Context, ptr %56, i32 0, i32 11
  %58 = load i32, ptr %57, align 4, !tbaa !50
  %59 = call i1 @llvm.is.constant.i32(i32 %58)
  br i1 %59, label %70, label %60

60:                                               ; preds = %54
  %61 = load ptr, ptr %3, align 8, !tbaa !29
  %62 = getelementptr inbounds nuw %struct.FFV1Context, ptr %61, i32 0, i32 8
  %63 = load i32, ptr %62, align 8, !tbaa !129
  %64 = sub nsw i32 0, %63
  %65 = load ptr, ptr %3, align 8, !tbaa !29
  %66 = getelementptr inbounds nuw %struct.FFV1Context, ptr %65, i32 0, i32 11
  %67 = load i32, ptr %66, align 4, !tbaa !50
  %68 = ashr i32 %64, %67
  %69 = sub nsw i32 0, %68
  br label %84

70:                                               ; preds = %54
  %71 = load ptr, ptr %3, align 8, !tbaa !29
  %72 = getelementptr inbounds nuw %struct.FFV1Context, ptr %71, i32 0, i32 8
  %73 = load i32, ptr %72, align 8, !tbaa !129
  %74 = load ptr, ptr %3, align 8, !tbaa !29
  %75 = getelementptr inbounds nuw %struct.FFV1Context, ptr %74, i32 0, i32 11
  %76 = load i32, ptr %75, align 4, !tbaa !50
  %77 = shl i32 1, %76
  %78 = add nsw i32 %73, %77
  %79 = sub nsw i32 %78, 1
  %80 = load ptr, ptr %3, align 8, !tbaa !29
  %81 = getelementptr inbounds nuw %struct.FFV1Context, ptr %80, i32 0, i32 11
  %82 = load i32, ptr %81, align 4, !tbaa !50
  %83 = ashr i32 %79, %82
  br label %84

84:                                               ; preds = %70, %60
  %85 = phi i32 [ %69, %60 ], [ %83, %70 ]
  %86 = mul nsw i32 %55, %85
  %87 = mul nsw i32 %86, 2
  %88 = sext i32 %87 to i64
  %89 = load i64, ptr %4, align 8, !tbaa !93
  %90 = add i64 %89, %88
  store i64 %90, ptr %4, align 8, !tbaa !93
  br label %91

91:                                               ; preds = %84, %1
  %92 = load ptr, ptr %3, align 8, !tbaa !29
  %93 = getelementptr inbounds nuw %struct.FFV1Context, ptr %92, i32 0, i32 45
  %94 = load i32, ptr %93, align 4, !tbaa !130
  %95 = mul nsw i32 %94, 800
  %96 = sext i32 %95 to i64
  %97 = load i64, ptr %4, align 8, !tbaa !93
  %98 = add i64 %97, %96
  store i64 %98, ptr %4, align 8, !tbaa !93
  %99 = load ptr, ptr %3, align 8, !tbaa !29
  %100 = getelementptr inbounds nuw %struct.FFV1Context, ptr %99, i32 0, i32 4
  %101 = load i32, ptr %100, align 8, !tbaa !39
  %102 = icmp sgt i32 %101, 3
  br i1 %102, label %103, label %134

103:                                              ; preds = %91
  %104 = load ptr, ptr %3, align 8, !tbaa !29
  %105 = getelementptr inbounds nuw %struct.FFV1Context, ptr %104, i32 0, i32 41
  %106 = load i32, ptr %105, align 4, !tbaa !47
  %107 = add nsw i32 %106, 1
  %108 = sext i32 %107 to i64
  %109 = load i64, ptr %4, align 8, !tbaa !93
  %110 = mul i64 %109, %108
  store i64 %110, ptr %4, align 8, !tbaa !93
  %111 = load ptr, ptr %3, align 8, !tbaa !29
  %112 = getelementptr inbounds nuw %struct.FFV1Context, ptr %111, i32 0, i32 32
  %113 = load i32, ptr %112, align 8, !tbaa !128
  %114 = icmp ne i32 %113, 0
  br i1 %114, label %115, label %133

115:                                              ; preds = %103
  %116 = load ptr, ptr %3, align 8, !tbaa !29
  %117 = getelementptr inbounds nuw %struct.FFV1Context, ptr %116, i32 0, i32 45
  %118 = load i32, ptr %117, align 4, !tbaa !130
  %119 = mul nsw i32 %118, 70000
  %120 = load ptr, ptr %3, align 8, !tbaa !29
  %121 = getelementptr inbounds nuw %struct.FFV1Context, ptr %120, i32 0, i32 9
  %122 = load i32, ptr %121, align 4, !tbaa !48
  %123 = mul nsw i32 2, %122
  %124 = add nsw i32 1, %123
  %125 = load ptr, ptr %3, align 8, !tbaa !29
  %126 = getelementptr inbounds nuw %struct.FFV1Context, ptr %125, i32 0, i32 12
  %127 = load i32, ptr %126, align 8, !tbaa !51
  %128 = add nsw i32 %124, %127
  %129 = mul nsw i32 %119, %128
  %130 = sext i32 %129 to i64
  %131 = load i64, ptr %4, align 8, !tbaa !93
  %132 = add i64 %131, %130
  store i64 %132, ptr %4, align 8, !tbaa !93
  br label %133

133:                                              ; preds = %115, %103
  br label %159

134:                                              ; preds = %91
  %135 = load ptr, ptr %3, align 8, !tbaa !29
  %136 = getelementptr inbounds nuw %struct.FFV1Context, ptr %135, i32 0, i32 45
  %137 = load i32, ptr %136, align 4, !tbaa !130
  %138 = mul nsw i32 %137, 2
  %139 = load ptr, ptr %2, align 8, !tbaa !4
  %140 = getelementptr inbounds nuw %struct.AVCodecContext, ptr %139, i32 0, i32 18
  %141 = load i32, ptr %140, align 8, !tbaa !73
  %142 = load ptr, ptr %2, align 8, !tbaa !4
  %143 = getelementptr inbounds nuw %struct.AVCodecContext, ptr %142, i32 0, i32 19
  %144 = load i32, ptr %143, align 4, !tbaa !74
  %145 = add nsw i32 %141, %144
  %146 = mul nsw i32 %138, %145
  %147 = sext i32 %146 to i64
  %148 = load i64, ptr %4, align 8, !tbaa !93
  %149 = add i64 %148, %147
  store i64 %149, ptr %4, align 8, !tbaa !93
  %150 = load ptr, ptr %3, align 8, !tbaa !29
  %151 = getelementptr inbounds nuw %struct.FFV1Context, ptr %150, i32 0, i32 41
  %152 = load i32, ptr %151, align 4, !tbaa !47
  %153 = mul nsw i32 2, %152
  %154 = add nsw i32 %153, 5
  %155 = mul nsw i32 8, %154
  %156 = sext i32 %155 to i64
  %157 = load i64, ptr %4, align 8, !tbaa !93
  %158 = mul i64 %157, %156
  store i64 %158, ptr %4, align 8, !tbaa !93
  br label %159

159:                                              ; preds = %134, %133
  %160 = load i64, ptr %4, align 8, !tbaa !93
  %161 = lshr i64 %160, 3
  store i64 %161, ptr %4, align 8, !tbaa !93
  %162 = load i64, ptr %4, align 8, !tbaa !93
  %163 = add i64 %162, 16384
  store i64 %163, ptr %4, align 8, !tbaa !93
  %164 = load i64, ptr %4, align 8, !tbaa !93
  call void @llvm.lifetime.end.p0(i64 8, ptr %4) #16
  call void @llvm.lifetime.end.p0(i64 8, ptr %3) #16
  ret i64 %164
}