; Function Attrs: mustprogress nofree norecurse nosync nounwind willreturn memory(read, inaccessiblemem: none) uwtable
define range(i64 16384, 2305843009213710336) i64 @ff_ffv1_encode_buffer_size(ptr noundef readonly captures(none) %0) local_unnamed_addr #11 {
  %2 = getelementptr inbounds nuw i8, ptr %0, i64 32
  %3 = load ptr, ptr %2, align 8, !tbaa !4
  %4 = getelementptr inbounds nuw i8, ptr %0, i64 112
  %5 = load i32, ptr %4, align 8, !tbaa !78
  %6 = getelementptr inbounds nuw i8, ptr %0, i64 116
  %7 = load i32, ptr %6, align 4, !tbaa !79
  %8 = mul nsw i32 %7, %5
  %9 = getelementptr inbounds nuw i8, ptr %3, i64 4208
  %10 = load i32, ptr %9, align 8, !tbaa !54
  %11 = add i32 %10, 1
  %12 = mul nsw i32 %8, %11
  %13 = sext i32 %12 to i64
  %14 = getelementptr inbounds nuw i8, ptr %3, i64 4196
  %15 = load i32, ptr %14, align 4, !tbaa !44
  %.not = icmp eq i32 %15, 0
  br i1 %.not, label %29, label %16

16:                                               ; preds = %1
  %17 = getelementptr inbounds nuw i8, ptr %3, i64 4200
  %18 = load i32, ptr %17, align 8, !tbaa !52
  %19 = sub nsw i32 0, %5
  %20 = ashr i32 %19, %18
  %21 = getelementptr inbounds nuw i8, ptr %3, i64 4192
  %22 = load i32, ptr %21, align 8, !tbaa !125
  %23 = sub nsw i32 0, %22
  %24 = getelementptr inbounds nuw i8, ptr %3, i64 4204
  %25 = load i32, ptr %24, align 4, !tbaa !53
  %26 = ashr i32 %23, %25
  %.neg.neg = shl i32 %20, 1
  %.neg37 = mul i32 %.neg.neg, %26
  %27 = sext i32 %.neg37 to i64
  %28 = add nsw i64 %27, %13
  br label %29

29:                                               ; preds = %16, %1
  %.0 = phi i64 [ %28, %16 ], [ %13, %1 ]
  %30 = getelementptr inbounds nuw i8, ptr %3, i64 25204
  %31 = load i32, ptr %30, align 4, !tbaa !126
  %32 = mul nsw i32 %31, 800
  %33 = sext i32 %32 to i64
  %34 = add nsw i64 %.0, %33
  %35 = getelementptr inbounds nuw i8, ptr %3, i64 4176
  %36 = load i32, ptr %35, align 8, !tbaa !36
  %37 = icmp sgt i32 %36, 3
  br i1 %37, label %38, label %53

38:                                               ; preds = %29
  %39 = getelementptr inbounds nuw i8, ptr %3, i64 25188
  %40 = load i32, ptr %39, align 4, !tbaa !43
  %41 = add nsw i32 %40, 1
  %42 = sext i32 %41 to i64
  %43 = mul i64 %34, %42
  %44 = getelementptr inbounds nuw i8, ptr %3, i64 25152
  %45 = load i32, ptr %44, align 8, !tbaa !124
  %.not36 = icmp eq i32 %45, 0
  br i1 %.not36, label %65, label %46

46:                                               ; preds = %38
  %47 = shl nsw i32 %15, 1
  %48 = add i32 %11, %47
  %49 = mul i32 %48, 70000
  %50 = mul i32 %49, %31
  %51 = sext i32 %50 to i64
  %52 = add i64 %43, %51
  br label %65

53:                                               ; preds = %29
  %54 = add nsw i32 %7, %5
  %55 = shl i32 %54, 1
  %56 = mul i32 %55, %31
  %57 = sext i32 %56 to i64
  %58 = add nsw i64 %34, %57
  %59 = getelementptr inbounds nuw i8, ptr %3, i64 25188
  %60 = load i32, ptr %59, align 4, !tbaa !43
  %61 = shl i32 %60, 4
  %62 = add i32 %61, 40
  %63 = sext i32 %62 to i64
  %64 = mul i64 %58, %63
  br label %65

65:                                               ; preds = %38, %46, %53
  %.1 = phi i64 [ %52, %46 ], [ %43, %38 ], [ %64, %53 ]
  %66 = lshr i64 %.1, 3
  %67 = add nuw nsw i64 %66, 16384
  ret i64 %67
}